(dp0
S'kc'
p1
(lp2
F0.098069182739161
aF-0.249308515140031
aF0.000500420465085
aF0.000529487524259
aF0.0
asS'alpha_c'
p3
F0.0
sS'fc_err'
p4
(lp5
F1.569282671152671
aF1.461154863082004
asS'cc'
p6
(lp7
F258.4224875619147
aF202.487139940006
asS'alpha_c_err'
p8
F0.0
sS'fc'
p9
(lp10
F364.4573624856433
aF364.5428106269892
asS'cc_err'
p11
(lp12
F2.286222691982841
aF1.902443125481905
asS'kc_err'
p13
(lp14
F0.012730833002324
aF0.038827084194026
aF0.00193359982977
aF0.002380503971426
aF0.0
asS'im_size'
p15
(lp16
I512
aI424
as.